target datalayout = "e-m:e-p270:32:32-p271:32:32-p272:64:64-i64:64-i128:128-f80:128-n8:16:32:64-S128"
target triple = "x86_64-pc-linux-gnu"

%struct.Qureg = type { i32, i32, i32, i64, i64, i32, i32, %struct.ComplexArray, %struct.ComplexArray, %struct.ComplexArray, ptr, ptr, ptr, ptr, ptr, ptr }
%struct.ComplexArray = type { ptr, ptr }

@__func__.applyParamNamedPhaseFunc = private unnamed_addr constant [25 x i8] c"applyParamNamedPhaseFunc\00", align 1

; Function Attrs: nounwind uwtable
define void @applyParamNamedPhaseFunc(ptr noundef byval(%struct.Qureg) align 8 %0, ptr noundef %1, ptr noundef %2, i32 noundef %3, i32 noundef %4, i32 noundef %5, ptr noundef %6, i32 noundef %7) #0 {
  %9 = alloca ptr, align 8
  %10 = alloca ptr, align 8
  %11 = alloca i32, align 4
  %12 = alloca i32, align 4
  %13 = alloca i32, align 4
  %14 = alloca ptr, align 8
  %15 = alloca i32, align 4
  %16 = alloca i32, align 4
  store ptr %1, ptr %9, align 8, !tbaa !27
  store ptr %2, ptr %10, align 8, !tbaa !27
  store i32 %3, ptr %11, align 4, !tbaa !4
  store i32 %4, ptr %12, align 4, !tbaa !4
  store i32 %5, ptr %13, align 4, !tbaa !4
  store ptr %6, ptr %14, align 8, !tbaa !23
  store i32 %7, ptr %15, align 4, !tbaa !4
  %17 = load ptr, ptr %9, align 8, !tbaa !27
  %18 = load ptr, ptr %10, align 8, !tbaa !27
  %19 = load i32, ptr %11, align 4, !tbaa !4
  call void @validateQubitSubregs(ptr noundef byval(%struct.Qureg) align 8 %0, ptr noundef %17, ptr noundef %18, i32 noundef %19, ptr noundef @__func__.applyParamNamedPhaseFunc)
  %20 = load ptr, ptr %10, align 8, !tbaa !27
  %21 = load i32, ptr %11, align 4, !tbaa !4
  %22 = load i32, ptr %12, align 4, !tbaa !4
  call void @validateMultiRegBitEncoding(ptr noundef %20, i32 noundef %21, i32 noundef %22, ptr noundef @__func__.applyParamNamedPhaseFunc)
  %23 = load i32, ptr %13, align 4, !tbaa !4
  %24 = load i32, ptr %11, align 4, !tbaa !4
  %25 = load i32, ptr %15, align 4, !tbaa !4
  call void @validatePhaseFuncName(i32 noundef %23, i32 noundef %24, i32 noundef %25, ptr noundef @__func__.applyParamNamedPhaseFunc)
  call void @llvm.lifetime.start.p0(i64 4, ptr %16) #7
  store i32 0, ptr %16, align 4, !tbaa !4
  %26 = load ptr, ptr %9, align 8, !tbaa !27
  %27 = load ptr, ptr %10, align 8, !tbaa !27
  %28 = load i32, ptr %11, align 4, !tbaa !4
  %29 = load i32, ptr %12, align 4, !tbaa !4
  %30 = load i32, ptr %13, align 4, !tbaa !4
  %31 = load ptr, ptr %14, align 8, !tbaa !23
  %32 = load i32, ptr %15, align 4, !tbaa !4
  %33 = load i32, ptr %16, align 4, !tbaa !4
  call void @statevec_applyParamNamedPhaseFuncOverrides(ptr noundef byval(%struct.Qureg) align 8 %0, ptr noundef %26, ptr noundef %27, i32 noundef %28, i32 noundef %29, i32 noundef %30, ptr noundef %31, i32 noundef %32, ptr noundef null, ptr noundef null, i32 noundef 0, i32 noundef %33)
  %34 = getelementptr inbounds nuw %struct.Qureg, ptr %0, i32 0, i32 0
  %35 = load i32, ptr %34, align 8, !tbaa !13
  %36 = icmp ne i32 %35, 0
  br i1 %36, label %37, label %57

37:                                               ; preds = %8
  store i32 1, ptr %16, align 4, !tbaa !4
  %38 = load ptr, ptr %9, align 8, !tbaa !27
  %39 = load ptr, ptr %10, align 8, !tbaa !27
  %40 = load i32, ptr %11, align 4, !tbaa !4
  %41 = getelementptr inbounds nuw %struct.Qureg, ptr %0, i32 0, i32 1
  %42 = load i32, ptr %41, align 4, !tbaa !18
  call void @shiftSubregIndices(ptr noundef %38, ptr noundef %39, i32 noundef %40, i32 noundef %42)
  %43 = load ptr, ptr %9, align 8, !tbaa !27
  %44 = load ptr, ptr %10, align 8, !tbaa !27
  %45 = load i32, ptr %11, align 4, !tbaa !4
  %46 = load i32, ptr %12, align 4, !tbaa !4
  %47 = load i32, ptr %13, align 4, !tbaa !4
  %48 = load ptr, ptr %14, align 8, !tbaa !23
  %49 = load i32, ptr %15, align 4, !tbaa !4
  %50 = load i32, ptr %16, align 4, !tbaa !4
  call void @statevec_applyParamNamedPhaseFuncOverrides(ptr noundef byval(%struct.Qureg) align 8 %0, ptr noundef %43, ptr noundef %44, i32 noundef %45, i32 noundef %46, i32 noundef %47, ptr noundef %48, i32 noundef %49, ptr noundef null, ptr noundef null, i32 noundef 0, i32 noundef %50)
  %51 = load ptr, ptr %9, align 8, !tbaa !27
  %52 = load ptr, ptr %10, align 8, !tbaa !27
  %53 = load i32, ptr %11, align 4, !tbaa !4
  %54 = getelementptr inbounds nuw %struct.Qureg, ptr %0, i32 0, i32 1
  %55 = load i32, ptr %54, align 4, !tbaa !18
  %56 = sub nsw i32 0, %55
  call void @shiftSubregIndices(ptr noundef %51, ptr noundef %52, i32 noundef %53, i32 noundef %56)
  br label %57

57:                                               ; preds = %37, %8
  %58 = load ptr, ptr %9, align 8, !tbaa !27
  %59 = load ptr, ptr %10, align 8, !tbaa !27
  %60 = load i32, ptr %11, align 4, !tbaa !4
  %61 = load i32, ptr %12, align 4, !tbaa !4
  %62 = load i32, ptr %13, align 4, !tbaa !4
  %63 = load ptr, ptr %14, align 8, !tbaa !23
  %64 = load i32, ptr %15, align 4, !tbaa !4
  call void @qasm_recordNamedPhaseFunc(ptr noundef byval(%struct.Qureg) align 8 %0, ptr noundef %58, ptr noundef %59, i32 noundef %60, i32 noundef %61, i32 noundef %62, ptr noundef %63, i32 noundef %64, ptr noundef null, ptr noundef null, i32 noundef 0)
  call void @llvm.lifetime.end.p0(i64 4, ptr %16) #7
  ret void
}