; Function Attrs: nounwind uwtable
define void @applyParamNamedPhaseFunc(ptr noundef readonly byval(%struct.Qureg) align 8 captures(none) %0, ptr noundef %1, ptr noundef %2, i32 noundef %3, i32 noundef %4, i32 noundef %5, ptr noundef %6, i32 noundef %7) local_unnamed_addr #0 {
  tail call void @validateQubitSubregs(ptr noundef nonnull byval(%struct.Qureg) align 8 %0, ptr noundef %1, ptr noundef %2, i32 noundef %3, ptr noundef nonnull @__func__.applyParamNamedPhaseFunc) #17
  tail call void @validateMultiRegBitEncoding(ptr noundef %2, i32 noundef %3, i32 noundef %4, ptr noundef nonnull @__func__.applyParamNamedPhaseFunc) #17
  tail call void @validatePhaseFuncName(i32 noundef %5, i32 noundef %3, i32 noundef %7, ptr noundef nonnull @__func__.applyParamNamedPhaseFunc) #17
  tail call void @statevec_applyParamNamedPhaseFuncOverrides(ptr noundef nonnull byval(%struct.Qureg) align 8 %0, ptr noundef %1, ptr noundef %2, i32 noundef %3, i32 noundef %4, i32 noundef %5, ptr noundef %6, i32 noundef %7, ptr noundef null, ptr noundef null, i32 noundef 0, i32 noundef 0) #17
  %9 = load i32, ptr %0, align 8, !tbaa !12
  %.not = icmp eq i32 %9, 0
  br i1 %.not, label %14, label %10

10:                                               ; preds = %8
  %11 = getelementptr inbounds nuw i8, ptr %0, i64 4
  %12 = load i32, ptr %11, align 4, !tbaa !17
  tail call void @shiftSubregIndices(ptr noundef %1, ptr noundef %2, i32 noundef %3, i32 noundef %12) #17
  tail call void @statevec_applyParamNamedPhaseFuncOverrides(ptr noundef nonnull byval(%struct.Qureg) align 8 %0, ptr noundef %1, ptr noundef %2, i32 noundef %3, i32 noundef %4, i32 noundef %5, ptr noundef %6, i32 noundef %7, ptr noundef null, ptr noundef null, i32 noundef 0, i32 noundef 1) #17
  %13 = sub nsw i32 0, %12
  tail call void @shiftSubregIndices(ptr noundef %1, ptr noundef %2, i32 noundef %3, i32 noundef %13) #17
  br label %14

14:                                               ; preds = %10, %8
  tail call void @qasm_recordNamedPhaseFunc(ptr noundef nonnull byval(%struct.Qureg) align 8 %0, ptr noundef %1, ptr noundef %2, i32 noundef %3, i32 noundef %4, i32 noundef %5, ptr noundef %6, i32 noundef %7, ptr noundef null, ptr noundef null, i32 noundef 0) #17
  ret void
}